(dp0
S'ui_language'
p1
S'en'
p2
sS'master_password'
p3
S'toor'
p4
sS'top_ten_connections'
p5
(dp6
VLocal_private
p7
(dp8
S'5'
p9
I2
ssVftpdb
p10
(dp11
S'5'
p12
I1
ssVlocal
p13
(dp14
S''
p15
I4
sS'25'
p16
I1
sS'26'
p17
I1
sS'38'
p18
I1
sS'20'
p19
I1
sS'14'
p20
I3
sS'22'
p21
I1
sS'16'
p22
I1
sS'32'
p23
I1
sS'31'
p24
I2
sS'45'
p25
I1
sS'40'
p26
I1
ssVprivate
p27
(dp28
S'11'
p29
I1
sS'10'
p30
I1
sS'12'
p31
I1
sS'23'
p32
I1
sS'3'
p33
I1
sS'5'
p34
I2
sssS'master_login'
p35
S'root'
p36
sS'databases'
p37
(lp38
(dp39
S'Path'
p40
S'local.db'
p41
sS'Password'
p42
g15
sS'Type'
p43
S'local'
p44
sS'Properties'
p45
(dp46
sS'Name'
p47
S'local'
p48
sa(dp49
g40
Vprivate.db
p50
sg42
Vprivate
p51
sg43
g44
sg45
(dp52
sg47
Vprivate
p53
sas.