(dp0
S'ui_language'
p1
S'en'
p2
sS'master_password'
p3
S'toor'
p4
sS'top_ten_connections'
p5
(dp6
sS'master_login'
p7
S'root'
p8
sS'databases'
p9
(lp10
(dp11
S'Name'
p12
S'Local_storage'
p13
sS'Path'
p14
S'config.db'
p15
sS'Password'
p16
S''
p17
sS'Type'
p18
S'local'
p19
sS'Properties'
p20
(dp21
sS'User'
p22
g17
sas.