(dp0
S'ui_language'
p1
S'en'
p2
sS'master_password'
p3
S'toor'
p4
sS'top_ten_connections'
p5
(dp6
sS'master_login'
p7
S'root'
p8
sS'databases'
p9
(lp10
(dp11
S'Path'
p12
S'local.db'
p13
sS'Password'
p14
Vsecret
p15
sS'Type'
p16
S'local'
p17
sS'Properties'
p18
(dp19
sS'Name'
p20
S'local'
p21
sas.