(dp0
S'ui_language'
p1
S'en'
p2
sS'master_password'
p3
S'toor'
p4
sS'top_ten_connections'
p5
(dp6
S'Local_storage'
p7
(dp8
ssS'master_login'
p9
S'root'
p10
sS'databases'
p11
(lp12
(dp13
S'Name'
p14
g7
sS'Path'
p15
S'config.db'
p16
sS'Password'
p17
S''
p18
sS'Type'
p19
S'local'
p20
sS'Properties'
p21
(dp22
sS'User'
p23
g18
sa(dp24
g14
VFTP_storageee
p25
sg15
S'config2.db'
p26
sg17
S'pwd'
p27
sg19
S'ftp'
p28
sg21
(dp29
S'FTPPassword'
p30
S'ftppwd'
p31
sS'FTPUser'
p32
S'ftpuser'
p33
sS'Port'
p34
I21
sS'Server'
p35
S'10.10.10.10'
p36
ssg23
S'user'
p37
sas.